target datalayout = "e-m:e-p270:32:32-p271:32:32-p272:64:64-i64:64-i128:128-f80:128-n8:16:32:64-S128"
target triple = "x86_64-pc-linux-gnu"

%struct.infinibandinfo = type { ptr, i8, i8, i16, i32, i64, i32, i32, i8, i8 }

@hf_infiniband_RETH = internal global i32 0, align 4
@hf_infiniband_virtual_address = internal global i32 0, align 4
@hf_infiniband_remote_key = internal global i32 0, align 4
@hf_infiniband_dma_length = internal global i32 0, align 4
@ett_reth = internal global i32 0, align 4
@.str.1230 = private unnamed_addr constant [3 x i8] c"%s\00", align 1
@.str.1576 = private unnamed_addr constant [38 x i8] c"RETH - RDMA Extended Transport Header\00", align 1

; Function Attrs: null_pointer_is_valid sspstrong uwtable
define internal void @parse_RETH(ptr noundef %0, ptr noundef %1, ptr noundef %2, ptr noundef %3) #0 {
  %5 = alloca ptr, align 8
  %6 = alloca ptr, align 8
  %7 = alloca ptr, align 8
  %8 = alloca ptr, align 8
  %9 = alloca i32, align 4
  %10 = alloca ptr, align 8
  %11 = alloca ptr, align 8
  store ptr %0, ptr %5, align 8
  store ptr %1, ptr %6, align 8
  store ptr %2, ptr %7, align 8
  store ptr %3, ptr %8, align 8
  call void @llvm.lifetime.start.p0(i64 4, ptr %9) #18
  %12 = load ptr, ptr %7, align 8
  %13 = load i32, ptr %12, align 4
  store i32 %13, ptr %9, align 4
  call void @llvm.lifetime.start.p0(i64 8, ptr %10) #18
  call void @llvm.lifetime.start.p0(i64 8, ptr %11) #18
  %14 = load ptr, ptr %5, align 8
  %15 = load i32, ptr @hf_infiniband_RETH, align 4
  %16 = load ptr, ptr %6, align 8
  %17 = load i32, ptr %9, align 4
  %18 = call ptr @proto_tree_add_item(ptr noundef %14, i32 noundef %15, ptr noundef %16, i32 noundef %17, i32 noundef 16, i32 noundef 0)
  store ptr %18, ptr %10, align 8
  %19 = load ptr, ptr %10, align 8
  call void (ptr, ptr, ...) @proto_item_set_text(ptr noundef %19, ptr noundef @.str.1230, ptr noundef @.str.1576)
  %20 = load ptr, ptr %10, align 8
  %21 = load i32, ptr @ett_reth, align 4
  %22 = call ptr @proto_item_add_subtree(ptr noundef %20, i32 noundef %21)
  store ptr %22, ptr %11, align 8
  %23 = load ptr, ptr %11, align 8
  %24 = load i32, ptr @hf_infiniband_virtual_address, align 4
  %25 = load ptr, ptr %6, align 8
  %26 = load i32, ptr %9, align 4
  %27 = load ptr, ptr %8, align 8
  %28 = getelementptr inbounds nuw %struct.infinibandinfo, ptr %27, i32 0, i32 5
  %29 = call ptr @proto_tree_add_item_ret_uint64(ptr noundef %23, i32 noundef %24, ptr noundef %25, i32 noundef %26, i32 noundef 8, i32 noundef 0, ptr noundef %28)
  %30 = load i32, ptr %9, align 4
  %31 = add i32 %30, 8
  store i32 %31, ptr %9, align 4
  %32 = load ptr, ptr %11, align 8
  %33 = load i32, ptr @hf_infiniband_remote_key, align 4
  %34 = load ptr, ptr %6, align 8
  %35 = load i32, ptr %9, align 4
  %36 = load ptr, ptr %8, align 8
  %37 = getelementptr inbounds nuw %struct.infinibandinfo, ptr %36, i32 0, i32 4
  %38 = call ptr @proto_tree_add_item_ret_uint(ptr noundef %32, i32 noundef %33, ptr noundef %34, i32 noundef %35, i32 noundef 4, i32 noundef 0, ptr noundef %37)
  %39 = load i32, ptr %9, align 4
  %40 = add i32 %39, 4
  store i32 %40, ptr %9, align 4
  %41 = load ptr, ptr %11, align 8
  %42 = load i32, ptr @hf_infiniband_dma_length, align 4
  %43 = load ptr, ptr %6, align 8
  %44 = load i32, ptr %9, align 4
  %45 = load ptr, ptr %8, align 8
  %46 = getelementptr inbounds nuw %struct.infinibandinfo, ptr %45, i32 0, i32 6
  %47 = call ptr @proto_tree_add_item_ret_uint(ptr noundef %41, i32 noundef %42, ptr noundef %43, i32 noundef %44, i32 noundef 4, i32 noundef 0, ptr noundef %46)
  %48 = load i32, ptr %9, align 4
  %49 = add i32 %48, 4
  store i32 %49, ptr %9, align 4
  %50 = load i32, ptr %9, align 4
  %51 = load ptr, ptr %7, align 8
  store i32 %50, ptr %51, align 4
  call void @llvm.lifetime.end.p0(i64 8, ptr %11) #18
  call void @llvm.lifetime.end.p0(i64 8, ptr %10) #18
  call void @llvm.lifetime.end.p0(i64 4, ptr %9) #18
  ret void
}