; Function Attrs: null_pointer_is_valid sspstrong uwtable
define internal fastcc void @parse_RETH(ptr noundef %0, ptr noundef %1, ptr noundef captures(none) %2, ptr noundef %3) unnamed_addr #0 {
  %5 = load i32, ptr %2, align 4
  %6 = load i32, ptr @hf_infiniband_RETH, align 4
  %7 = tail call ptr @proto_tree_add_item(ptr noundef %0, i32 noundef %6, ptr noundef %1, i32 noundef %5, i32 noundef 16, i32 noundef 0)
  tail call void (ptr, ptr, ...) @proto_item_set_text(ptr noundef %7, ptr noundef nonnull @.str.1230, ptr noundef nonnull @.str.1576)
  %8 = load i32, ptr @ett_reth, align 4
  %9 = tail call ptr @proto_item_add_subtree(ptr noundef %7, i32 noundef %8)
  %10 = load i32, ptr @hf_infiniband_virtual_address, align 4
  %11 = getelementptr inbounds nuw i8, ptr %3, i64 16
  %12 = tail call ptr @proto_tree_add_item_ret_uint64(ptr noundef %9, i32 noundef %10, ptr noundef %1, i32 noundef %5, i32 noundef 8, i32 noundef 0, ptr noundef nonnull %11)
  %13 = add i32 %5, 8
  %14 = load i32, ptr @hf_infiniband_remote_key, align 4
  %15 = getelementptr inbounds nuw i8, ptr %3, i64 12
  %16 = tail call ptr @proto_tree_add_item_ret_uint(ptr noundef %9, i32 noundef %14, ptr noundef %1, i32 noundef %13, i32 noundef 4, i32 noundef 0, ptr noundef nonnull %15)
  %17 = add i32 %5, 12
  %18 = load i32, ptr @hf_infiniband_dma_length, align 4
  %19 = getelementptr inbounds nuw i8, ptr %3, i64 24
  %20 = tail call ptr @proto_tree_add_item_ret_uint(ptr noundef %9, i32 noundef %18, ptr noundef %1, i32 noundef %17, i32 noundef 4, i32 noundef 0, ptr noundef nonnull %19)
  %21 = add i32 %5, 16
  store i32 %21, ptr %2, align 4
  ret void
}